; Function Attrs: mustprogress nofree norecurse nosync nounwind memory(argmem: write) uwtable
define hidden range(i32 -46, 1) i32 @mbedtls_oid_get_oid_by_sig_alg(i32 noundef %0, i32 noundef %1, ptr noundef writeonly captures(none) %2, ptr noundef writeonly captures(none) %3) local_unnamed_addr #2 {
  br label %5

5:                                                ; preds = %4, %17
  %6 = phi ptr [ @.str.121, %4 ], [ %19, %17 ]
  %.014 = phi ptr [ @_ZL11oid_sig_alg, %4 ], [ %18, %17 ]
  %7 = getelementptr inbounds nuw i8, ptr %.014, i64 36
  %8 = load i32, ptr %7, align 4, !tbaa !33
  %9 = icmp eq i32 %8, %0
  br i1 %9, label %10, label %17

10:                                               ; preds = %5
  %11 = getelementptr inbounds nuw i8, ptr %.014, i64 32
  %12 = load i32, ptr %11, align 8, !tbaa !31
  %13 = icmp eq i32 %12, %1
  br i1 %13, label %14, label %17

14:                                               ; preds = %10
  store ptr %6, ptr %2, align 8, !tbaa !19
  %15 = getelementptr inbounds nuw i8, ptr %.014, i64 8
  %16 = load i64, ptr %15, align 8, !tbaa !35
  store i64 %16, ptr %3, align 8, !tbaa !36
  br label %.loopexit

17:                                               ; preds = %10, %5
  %18 = getelementptr inbounds nuw i8, ptr %.014, i64 40
  %19 = load ptr, ptr %18, align 8, !tbaa !37
  %.not = icmp eq ptr %19, null
  br i1 %.not, label %.loopexit, label %5, !llvm.loop !38

.loopexit:                                        ; preds = %17, %14
  %.010 = phi i32 [ 0, %14 ], [ -46, %17 ]
  ret i32 %.010
}